; ModuleID = 'source-C-CXX/11/301.cpp'
source_filename = "source-C-CXX/11/301.cpp"
target datalayout = "e-m:e-p270:32:32-p271:32:32-p272:64:64-i64:64-f80:128-n8:16:32:64-S128"
target triple = "x86_64-pc-linux-gnu"

%"class.std::ios_base::Init" = type { i8 }
%"class.std::basic_istream" = type { i32 (...)**, i64, %"class.std::basic_ios" }
%"class.std::basic_ios" = type { %"class.std::ios_base", %"class.std::basic_ostream"*, i8, i8, %"class.std::basic_streambuf"*, %"class.std::ctype"*, %"class.std::num_put"*, %"class.std::num_get"* }
%"class.std::ios_base" = type { i32 (...)**, i64, i64, i32, i32, i32, %"struct.std::ios_base::_Callback_list"*, %"struct.std::ios_base::_Words", [8 x %"struct.std::ios_base::_Words"], i32, %"struct.std::ios_base::_Words"*, %"class.std::locale" }
%"struct.std::ios_base::_Callback_list" = type { %"struct.std::ios_base::_Callback_list"*, void (i32, %"class.std::ios_base"*, i32)*, i32, i32 }
%"struct.std::ios_base::_Words" = type { i8*, i64 }
%"class.std::locale" = type { %"class.std::locale::_Impl"* }
%"class.std::locale::_Impl" = type { i32, %"class.std::locale::facet"**, i64, %"class.std::locale::facet"**, i8** }
%"class.std::locale::facet" = type <{ i32 (...)**, i32, [4 x i8] }>
%"class.std::basic_ostream" = type { i32 (...)**, %"class.std::basic_ios" }
%"class.std::basic_streambuf" = type { i32 (...)**, i8*, i8*, i8*, i8*, i8*, i8*, %"class.std::locale" }
%"class.std::ctype" = type <{ %"class.std::locale::facet.base", [4 x i8], %struct.__locale_struct*, i8, [7 x i8], i32*, i32*, i16*, i8, [256 x i8], [256 x i8], i8, [6 x i8] }>
%"class.std::locale::facet.base" = type <{ i32 (...)**, i32 }>
%struct.__locale_struct = type { [13 x %struct.__locale_data*], i16*, i32*, i32*, [13 x i8*] }
%struct.__locale_data = type opaque
%"class.std::num_put" = type { %"class.std::locale::facet.base", [4 x i8] }
%"class.std::num_get" = type { %"class.std::locale::facet.base", [4 x i8] }

@_ZStL8__ioinit = internal global %"class.std::ios_base::Init" zeroinitializer, align 1
@__dso_handle = external hidden global i8
@_ZSt3cin = external global %"class.std::basic_istream", align 8
@_ZSt4cout = external global %"class.std::basic_ostream", align 8
@llvm.global_ctors = appending global [1 x { i32, void ()*, i8* }] [{ i32, void ()*, i8* } { i32 65535, void ()* @_GLOBAL__sub_I_301.cpp, i8* null }]

declare void @_ZNSt8ios_base4InitC1Ev(%"class.std::ios_base::Init"* nonnull align 1 dereferenceable(1)) unnamed_addr #0

; Function Attrs: nounwind
declare void @_ZNSt8ios_base4InitD1Ev(%"class.std::ios_base::Init"* nonnull align 1 dereferenceable(1)) unnamed_addr #1

; Function Attrs: nofree nounwind
declare i32 @__cxa_atexit(void (i8*)*, i8*, i8*) local_unnamed_addr #2

; Function Attrs: mustprogress norecurse sspstrong uwtable
define dso_local i32 @main() local_unnamed_addr #3 {
  %1 = alloca [16 x i32], align 16
  %2 = bitcast [16 x i32]* %1 to i8*
  call void @llvm.lifetime.start.p0i8(i64 64, i8* nonnull %2) #7
  %3 = getelementptr inbounds [16 x i32], [16 x i32]* %1, i64 0, i64 0
  %4 = call nonnull align 8 dereferenceable(16) %"class.std::basic_istream"* @_ZNSirsERi(%"class.std::basic_istream"* nonnull align 8 dereferenceable(16) @_ZSt3cin, i32* nonnull align 4 dereferenceable(4) %3)
  %5 = load i32, i32* %3, align 16, !tbaa !5
  %6 = icmp eq i32 %5, -1
  br i1 %6, label %75, label %7

7:                                                ; preds = %0, %14
  %8 = phi i64 [ %15, %14 ], [ 0, %0 ]
  %9 = add nuw nsw i64 %8, 1
  %10 = getelementptr inbounds [16 x i32], [16 x i32]* %1, i64 0, i64 %9
  %11 = call nonnull align 8 dereferenceable(16) %"class.std::basic_istream"* @_ZNSirsERi(%"class.std::basic_istream"* nonnull align 8 dereferenceable(16) @_ZSt3cin, i32* nonnull align 4 dereferenceable(4) %10)
  %12 = load i32, i32* %10, align 4, !tbaa !5
  %13 = icmp eq i32 %12, 0
  br i1 %13, label %16, label %14

14:                                               ; preds = %7, %50
  %15 = phi i64 [ %9, %7 ], [ 0, %50 ]
  br label %7, !llvm.loop !9

16:                                               ; preds = %7
  %17 = add nuw i64 %8, 1
  %18 = and i64 %17, 4294967295
  br label %19

19:                                               ; preds = %16, %71
  %20 = phi i64 [ 0, %16 ], [ %73, %71 ]
  %21 = phi i32 [ 0, %16 ], [ %72, %71 ]
  %22 = getelementptr inbounds [16 x i32], [16 x i32]* %1, i64 0, i64 %20
  br label %57

23:                                               ; preds = %71
  %24 = call nonnull align 8 dereferenceable(8) %"class.std::basic_ostream"* @_ZNSolsEi(%"class.std::basic_ostream"* nonnull align 8 dereferenceable(8) @_ZSt4cout, i32 %72)
  %25 = bitcast %"class.std::basic_ostream"* %24 to i8**
  %26 = load i8*, i8** %25, align 8, !tbaa !11
  %27 = getelementptr i8, i8* %26, i64 -24
  %28 = bitcast i8* %27 to i64*
  %29 = load i64, i64* %28, align 8
  %30 = bitcast %"class.std::basic_ostream"* %24 to i8*
  %31 = add nsw i64 %29, 240
  %32 = getelementptr inbounds i8, i8* %30, i64 %31
  %33 = bitcast i8* %32 to %"class.std::ctype"**
  %34 = load %"class.std::ctype"*, %"class.std::ctype"** %33, align 8, !tbaa !13
  %35 = icmp eq %"class.std::ctype"* %34, null
  br i1 %35, label %36, label %37

36:                                               ; preds = %23
  call void @_ZSt16__throw_bad_castv() #8
  unreachable

37:                                               ; preds = %23
  %38 = getelementptr inbounds %"class.std::ctype", %"class.std::ctype"* %34, i64 0, i32 8
  %39 = load i8, i8* %38, align 8, !tbaa !17
  %40 = icmp eq i8 %39, 0
  br i1 %40, label %44, label %41

41:                                               ; preds = %37
  %42 = getelementptr inbounds %"class.std::ctype", %"class.std::ctype"* %34, i64 0, i32 9, i64 10
  %43 = load i8, i8* %42, align 1, !tbaa !19
  br label %50

44:                                               ; preds = %37
  call void @_ZNKSt5ctypeIcE13_M_widen_initEv(%"class.std::ctype"* nonnull align 8 dereferenceable(570) %34)
  %45 = bitcast %"class.std::ctype"* %34 to i8 (%"class.std::ctype"*, i8)***
  %46 = load i8 (%"class.std::ctype"*, i8)**, i8 (%"class.std::ctype"*, i8)*** %45, align 8, !tbaa !11
  %47 = getelementptr inbounds i8 (%"class.std::ctype"*, i8)*, i8 (%"class.std::ctype"*, i8)** %46, i64 6
  %48 = load i8 (%"class.std::ctype"*, i8)*, i8 (%"class.std::ctype"*, i8)** %47, align 8
  %49 = call signext i8 %48(%"class.std::ctype"* nonnull align 8 dereferenceable(570) %34, i8 signext 10)
  br label %50

50:                                               ; preds = %41, %44
  %51 = phi i8 [ %43, %41 ], [ %49, %44 ]
  %52 = call nonnull align 8 dereferenceable(8) %"class.std::basic_ostream"* @_ZNSo3putEc(%"class.std::basic_ostream"* nonnull align 8 dereferenceable(8) %24, i8 signext %51)
  %53 = call nonnull align 8 dereferenceable(8) %"class.std::basic_ostream"* @_ZNSo5flushEv(%"class.std::basic_ostream"* nonnull align 8 dereferenceable(8) %52)
  %54 = call nonnull align 8 dereferenceable(16) %"class.std::basic_istream"* @_ZNSirsERi(%"class.std::basic_istream"* nonnull align 8 dereferenceable(16) @_ZSt3cin, i32* nonnull align 4 dereferenceable(4) %3)
  %55 = load i32, i32* %3, align 16, !tbaa !5
  %56 = icmp eq i32 %55, -1
  br i1 %56, label %75, label %14

57:                                               ; preds = %19, %68
  %58 = phi i64 [ 0, %19 ], [ %69, %68 ]
  %59 = icmp eq i64 %58, %20
  br i1 %59, label %68, label %60

60:                                               ; preds = %57
  %61 = getelementptr inbounds [16 x i32], [16 x i32]* %1, i64 0, i64 %58
  %62 = load i32, i32* %61, align 4, !tbaa !5
  %63 = load i32, i32* %22, align 4, !tbaa !5
  %64 = shl nsw i32 %63, 1
  %65 = icmp eq i32 %62, %64
  br i1 %65, label %66, label %68

66:                                               ; preds = %60
  %67 = add nsw i32 %21, 1
  br label %71

68:                                               ; preds = %60, %57
  %69 = add nuw nsw i64 %58, 1
  %70 = icmp eq i64 %69, %18
  br i1 %70, label %71, label %57, !llvm.loop !20

71:                                               ; preds = %68, %66
  %72 = phi i32 [ %67, %66 ], [ %21, %68 ]
  %73 = add nuw nsw i64 %20, 1
  %74 = icmp eq i64 %73, %18
  br i1 %74, label %23, label %19, !llvm.loop !21

75:                                               ; preds = %50, %0
  call void @llvm.lifetime.end.p0i8(i64 64, i8* nonnull %2) #7
  ret i32 0
}

; Function Attrs: argmemonly mustprogress nofree nosync nounwind willreturn
declare void @llvm.lifetime.start.p0i8(i64 immarg, i8* nocapture) #4

declare nonnull align 8 dereferenceable(16) %"class.std::basic_istream"* @_ZNSirsERi(%"class.std::basic_istream"* nonnull align 8 dereferenceable(16), i32* nonnull align 4 dereferenceable(4)) local_unnamed_addr #0

; Function Attrs: argmemonly mustprogress nofree nosync nounwind willreturn
declare void @llvm.lifetime.end.p0i8(i64 immarg, i8* nocapture) #4

declare nonnull align 8 dereferenceable(8) %"class.std::basic_ostream"* @_ZNSolsEi(%"class.std::basic_ostream"* nonnull align 8 dereferenceable(8), i32) local_unnamed_addr #0

declare nonnull align 8 dereferenceable(8) %"class.std::basic_ostream"* @_ZNSo3putEc(%"class.std::basic_ostream"* nonnull align 8 dereferenceable(8), i8 signext) local_unnamed_addr #0

declare nonnull align 8 dereferenceable(8) %"class.std::basic_ostream"* @_ZNSo5flushEv(%"class.std::basic_ostream"* nonnull align 8 dereferenceable(8)) local_unnamed_addr #0

; Function Attrs: noreturn
declare void @_ZSt16__throw_bad_castv() local_unnamed_addr #5

declare void @_ZNKSt5ctypeIcE13_M_widen_initEv(%"class.std::ctype"* nonnull align 8 dereferenceable(570)) local_unnamed_addr #0

; Function Attrs: sspstrong uwtable
define internal void @_GLOBAL__sub_I_301.cpp() #6 section ".text.startup" {
  tail call void @_ZNSt8ios_base4InitC1Ev(%"class.std::ios_base::Init"* nonnull align 1 dereferenceable(1) @_ZStL8__ioinit)
  %1 = tail call i32 @__cxa_atexit(void (i8*)* bitcast (void (%"class.std::ios_base::Init"*)* @_ZNSt8ios_base4InitD1Ev to void (i8*)*), i8* getelementptr inbounds (%"class.std::ios_base::Init", %"class.std::ios_base::Init"* @_ZStL8__ioinit, i64 0, i32 0), i8* nonnull @__dso_handle) #7
  ret void
}


!llvm.module.flags = !{!0, !1, !2, !3}
!llvm.ident = !{!4}

!0 = !{i32 1, !"wchar_size", i32 4}
!1 = !{i32 7, !"PIC Level", i32 2}
!2 = !{i32 7, !"PIE Level", i32 2}
!3 = !{i32 7, !"uwtable", i32 1}
!4 = !{!"clang version 13.0.0"}
!5 = !{!6, !6, i64 0}
!6 = !{!"int", !7, i64 0}
!7 = !{!"omnipotent char", !8, i64 0}
!8 = !{!"Simple C++ TBAA"}
!9 = distinct !{!9, !10}
!10 = !{!"llvm.loop.mustprogress"}
!11 = !{!12, !12, i64 0}
!12 = !{!"vtable pointer", !8, i64 0}
!13 = !{!14, !15, i64 240}
!14 = !{!"_ZTSSt9basic_iosIcSt11char_traitsIcEE", !15, i64 216, !7, i64 224, !16, i64 225, !15, i64 232, !15, i64 240, !15, i64 248, !15, i64 256}
!15 = !{!"any pointer", !7, i64 0}
!16 = !{!"bool", !7, i64 0}
!17 = !{!18, !7, i64 56}
!18 = !{!"_ZTSSt5ctypeIcE", !15, i64 16, !16, i64 24, !15, i64 32, !15, i64 40, !15, i64 48, !7, i64 56, !7, i64 57, !7, i64 313, !7, i64 569}
!19 = !{!7, !7, i64 0}
!20 = distinct !{!20, !10}
!21 = distinct !{!21, !10}
